target datalayout = "e-m:e-p270:32:32-p271:32:32-p272:64:64-i64:64-f80:128-n8:16:32:64-S128"
target triple = "x86_64-pc-linux-gnu"

@.str = private unnamed_addr constant [6 x i8] c"%d %d\00", align 1
@.str.1 = private unnamed_addr constant [5 x i8] c"%d%c\00", align 1
@.str.2 = private unnamed_addr constant [4 x i8] c"%d \00", align 1
@.str.3 = private unnamed_addr constant [4 x i8] c"%d\0A\00", align 1

; Function Attrs: noinline nounwind uwtable
define dso_local i32 @main() #0 {
  %1 = alloca i32, align 4
  %2 = alloca [100 x [100 x i32]], align 16
  %3 = alloca [100 x [100 x i32]], align 16
  %4 = alloca [100 x [100 x i32]], align 16
  %5 = alloca i32, align 4
  %6 = alloca i32, align 4
  %7 = alloca i32, align 4
  %8 = alloca i32, align 4
  %9 = alloca i32, align 4
  %10 = alloca i32, align 4
  %11 = alloca i32, align 4
  %12 = alloca i32, align 4
  %13 = alloca i32, align 4
  %14 = alloca i8, align 1
  store i32 0, i32* %1, align 4
  %15 = call i32 (i8*, ...) @__isoc99_scanf(i8* getelementptr inbounds ([6 x i8], [6 x i8]* @.str, i64 0, i64 0), i32* %5, i32* %6)
  store i32 0, i32* %11, align 4
  br label %16

16:                                               ; preds = %43, %0
  %17 = load i32, i32* %11, align 4
  %18 = load i32, i32* %5, align 4
  %19 = icmp slt i32 %17, %18
  br i1 %19, label %20, label %46

20:                                               ; preds = %16
  store i32 0, i32* %12, align 4
  br label %21

21:                                               ; preds = %39, %20
  %22 = load i32, i32* %12, align 4
  %23 = load i32, i32* %6, align 4
  %24 = icmp slt i32 %22, %23
  br i1 %24, label %25, label %42

25:                                               ; preds = %21
  %26 = load i32, i32* %11, align 4
  %27 = sext i32 %26 to i64
  %28 = getelementptr inbounds [100 x [100 x i32]], [100 x [100 x i32]]* %2, i64 0, i64 %27
  %29 = load i32, i32* %12, align 4
  %30 = sext i32 %29 to i64
  %31 = getelementptr inbounds [100 x i32], [100 x i32]* %28, i64 0, i64 %30
  %32 = call i32 (i8*, ...) @__isoc99_scanf(i8* getelementptr inbounds ([5 x i8], [5 x i8]* @.str.1, i64 0, i64 0), i32* %31, i8* %14)
  %33 = load i8, i8* %14, align 1
  %34 = sext i8 %33 to i32
  %35 = icmp ne i32 %34, 32
  br i1 %35, label %36, label %37

36:                                               ; preds = %25
  br label %42

37:                                               ; preds = %25
  br label %38

38:                                               ; preds = %37
  br label %39

39:                                               ; preds = %38
  %40 = load i32, i32* %12, align 4
  %41 = add nsw i32 %40, 1
  store i32 %41, i32* %12, align 4
  br label %21

42:                                               ; preds = %36, %21
  br label %43

43:                                               ; preds = %42
  %44 = load i32, i32* %11, align 4
  %45 = add nsw i32 %44, 1
  store i32 %45, i32* %11, align 4
  br label %16

46:                                               ; preds = %16
  %47 = call i32 (i8*, ...) @__isoc99_scanf(i8* getelementptr inbounds ([6 x i8], [6 x i8]* @.str, i64 0, i64 0), i32* %7, i32* %8)
  store i32 0, i32* %11, align 4
  br label %48

48:                                               ; preds = %75, %46
  %49 = load i32, i32* %11, align 4
  %50 = load i32, i32* %7, align 4
  %51 = icmp slt i32 %49, %50
  br i1 %51, label %52, label %78

52:                                               ; preds = %48
  store i32 0, i32* %12, align 4
  br label %53

53:                                               ; preds = %71, %52
  %54 = load i32, i32* %12, align 4
  %55 = load i32, i32* %8, align 4
  %56 = icmp slt i32 %54, %55
  br i1 %56, label %57, label %74

57:                                               ; preds = %53
  %58 = load i32, i32* %11, align 4
  %59 = sext i32 %58 to i64
  %60 = getelementptr inbounds [100 x [100 x i32]], [100 x [100 x i32]]* %3, i64 0, i64 %59
  %61 = load i32, i32* %12, align 4
  %62 = sext i32 %61 to i64
  %63 = getelementptr inbounds [100 x i32], [100 x i32]* %60, i64 0, i64 %62
  %64 = call i32 (i8*, ...) @__isoc99_scanf(i8* getelementptr inbounds ([5 x i8], [5 x i8]* @.str.1, i64 0, i64 0), i32* %63, i8* %14)
  %65 = load i8, i8* %14, align 1
  %66 = sext i8 %65 to i32
  %67 = icmp ne i32 %66, 32
  br i1 %67, label %68, label %69

68:                                               ; preds = %57
  br label %74

69:                                               ; preds = %57
  br label %70

70:                                               ; preds = %69
  br label %71

71:                                               ; preds = %70
  %72 = load i32, i32* %12, align 4
  %73 = add nsw i32 %72, 1
  store i32 %73, i32* %12, align 4
  br label %53

74:                                               ; preds = %68, %53
  br label %75

75:                                               ; preds = %74
  %76 = load i32, i32* %11, align 4
  %77 = add nsw i32 %76, 1
  store i32 %77, i32* %11, align 4
  br label %48

78:                                               ; preds = %48
  %79 = load i32, i32* %5, align 4
  store i32 %79, i32* %9, align 4
  %80 = load i32, i32* %8, align 4
  store i32 %80, i32* %10, align 4
  store i32 0, i32* %11, align 4
  br label %81

81:                                               ; preds = %139, %78
  %82 = load i32, i32* %11, align 4
  %83 = load i32, i32* %9, align 4
  %84 = icmp slt i32 %82, %83
  br i1 %84, label %85, label %142

85:                                               ; preds = %81
  store i32 0, i32* %12, align 4
  br label %86

86:                                               ; preds = %135, %85
  %87 = load i32, i32* %12, align 4
  %88 = load i32, i32* %10, align 4
  %89 = icmp slt i32 %87, %88
  br i1 %89, label %90, label %138

90:                                               ; preds = %86
  %91 = load i32, i32* %11, align 4
  %92 = sext i32 %91 to i64
  %93 = getelementptr inbounds [100 x [100 x i32]], [100 x [100 x i32]]* %4, i64 0, i64 %92
  %94 = load i32, i32* %12, align 4
  %95 = sext i32 %94 to i64
  %96 = getelementptr inbounds [100 x i32], [100 x i32]* %93, i64 0, i64 %95
  store i32 0, i32* %96, align 4
  store i32 0, i32* %13, align 4
  br label %97

97:                                               ; preds = %131, %90
  %98 = load i32, i32* %13, align 4
  %99 = load i32, i32* %7, align 4
  %100 = icmp slt i32 %98, %99
  br i1 %100, label %101, label %134

101:                                              ; preds = %97
  %102 = load i32, i32* %11, align 4
  %103 = sext i32 %102 to i64
  %104 = getelementptr inbounds [100 x [100 x i32]], [100 x [100 x i32]]* %4, i64 0, i64 %103
  %105 = load i32, i32* %12, align 4
  %106 = sext i32 %105 to i64
  %107 = getelementptr inbounds [100 x i32], [100 x i32]* %104, i64 0, i64 %106
  %108 = load i32, i32* %107, align 4
  %109 = load i32, i32* %11, align 4
  %110 = sext i32 %109 to i64
  %111 = getelementptr inbounds [100 x [100 x i32]], [100 x [100 x i32]]* %2, i64 0, i64 %110
  %112 = load i32, i32* %13, align 4
  %113 = sext i32 %112 to i64
  %114 = getelementptr inbounds [100 x i32], [100 x i32]* %111, i64 0, i64 %113
  %115 = load i32, i32* %114, align 4
  %116 = load i32, i32* %13, align 4
  %117 = sext i32 %116 to i64
  %118 = getelementptr inbounds [100 x [100 x i32]], [100 x [100 x i32]]* %3, i64 0, i64 %117
  %119 = load i32, i32* %12, align 4
  %120 = sext i32 %119 to i64
  %121 = getelementptr inbounds [100 x i32], [100 x i32]* %118, i64 0, i64 %120
  %122 = load i32, i32* %121, align 4
  %123 = mul nsw i32 %115, %122
  %124 = add nsw i32 %108, %123
  %125 = load i32, i32* %11, align 4
  %126 = sext i32 %125 to i64
  %127 = getelementptr inbounds [100 x [100 x i32]], [100 x [100 x i32]]* %4, i64 0, i64 %126
  %128 = load i32, i32* %12, align 4
  %129 = sext i32 %128 to i64
  %130 = getelementptr inbounds [100 x i32], [100 x i32]* %127, i64 0, i64 %129
  store i32 %124, i32* %130, align 4
  br label %131

131:                                              ; preds = %101
  %132 = load i32, i32* %13, align 4
  %133 = add nsw i32 %132, 1
  store i32 %133, i32* %13, align 4
  br label %97

134:                                              ; preds = %97
  br label %135

135:                                              ; preds = %134
  %136 = load i32, i32* %12, align 4
  %137 = add nsw i32 %136, 1
  store i32 %137, i32* %12, align 4
  br label %86

138:                                              ; preds = %86
  br label %139

139:                                              ; preds = %138
  %140 = load i32, i32* %11, align 4
  %141 = add nsw i32 %140, 1
  store i32 %141, i32* %11, align 4
  br label %81

142:                                              ; preds = %81
  store i32 0, i32* %11, align 4
  br label %143

143:                                              ; preds = %175, %142
  %144 = load i32, i32* %11, align 4
  %145 = load i32, i32* %9, align 4
  %146 = icmp slt i32 %144, %145
  br i1 %146, label %147, label %178

147:                                              ; preds = %143
  store i32 0, i32* %12, align 4
  br label %148

148:                                              ; preds = %162, %147
  %149 = load i32, i32* %12, align 4
  %150 = load i32, i32* %10, align 4
  %151 = sub nsw i32 %150, 1
  %152 = icmp slt i32 %149, %151
  br i1 %152, label %153, label %165

153:                                              ; preds = %148
  %154 = load i32, i32* %11, align 4
  %155 = sext i32 %154 to i64
  %156 = getelementptr inbounds [100 x [100 x i32]], [100 x [100 x i32]]* %4, i64 0, i64 %155
  %157 = load i32, i32* %12, align 4
  %158 = sext i32 %157 to i64
  %159 = getelementptr inbounds [100 x i32], [100 x i32]* %156, i64 0, i64 %158
  %160 = load i32, i32* %159, align 4
  %161 = call i32 (i8*, ...) @printf(i8* getelementptr inbounds ([4 x i8], [4 x i8]* @.str.2, i64 0, i64 0), i32 %160)
  br label %162

162:                                              ; preds = %153
  %163 = load i32, i32* %12, align 4
  %164 = add nsw i32 %163, 1
  store i32 %164, i32* %12, align 4
  br label %148

165:                                              ; preds = %148
  %166 = load i32, i32* %11, align 4
  %167 = sext i32 %166 to i64
  %168 = getelementptr inbounds [100 x [100 x i32]], [100 x [100 x i32]]* %4, i64 0, i64 %167
  %169 = load i32, i32* %10, align 4
  %170 = sub nsw i32 %169, 1
  %171 = sext i32 %170 to i64
  %172 = getelementptr inbounds [100 x i32], [100 x i32]* %168, i64 0, i64 %171
  %173 = load i32, i32* %172, align 4
  %174 = call i32 (i8*, ...) @printf(i8* getelementptr inbounds ([4 x i8], [4 x i8]* @.str.3, i64 0, i64 0), i32 %173)
  br label %175

175:                                              ; preds = %165
  %176 = load i32, i32* %11, align 4
  %177 = add nsw i32 %176, 1
  store i32 %177, i32* %11, align 4
  br label %143

178:                                              ; preds = %143
  %179 = load i32, i32* %1, align 4
  ret i32 %179
}